target datalayout = "e-m:e-p270:32:32-p271:32:32-p272:64:64-i64:64-i128:128-f80:128-n8:16:32:64-S128"
target triple = "x86_64-pc-linux-gnu"

%struct.Variable = type { i32, double, double, double, ptr, i8, %"class.std::vector", %"class.std::vector" }
%"class.std::vector" = type { %"struct.std::_Vector_base" }
%"struct.std::_Vector_base" = type { %"struct.std::_Vector_base<Constraint *, std::allocator<Constraint *>>::_Vector_impl" }
%"struct.std::_Vector_base<Constraint *, std::allocator<Constraint *>>::_Vector_impl" = type { %"struct.std::_Vector_base<Constraint *, std::allocator<Constraint *>>::_Vector_impl_data" }
%"struct.std::_Vector_base<Constraint *, std::allocator<Constraint *>>::_Vector_impl_data" = type { ptr, ptr, ptr }
%"class.__gnu_cxx::__normal_iterator.5" = type { ptr }
%struct.Constraint = type <{ ptr, ptr, double, double, i64, i8, i8, [6 x i8] }>

; Function Attrs: mustprogress nounwind uwtable
define linkonce_odr noundef nonnull align 8 dereferenceable(8) ptr @_ZNK9__gnu_cxx17__normal_iteratorIPP10ConstraintSt6vectorIS2_SaIS2_EEE4baseEv(ptr noundef nonnull align 8 dereferenceable(8) %0) #6 comdat align 2 {
  %2 = alloca ptr, align 8
  store ptr %0, ptr %2, align 8, !tbaa !60
  %3 = load ptr, ptr %2, align 8
  %4 = getelementptr inbounds nuw %"class.__gnu_cxx::__normal_iterator.5", ptr %3, i32 0, i32 0
  ret ptr %4
}

; Function Attrs: mustprogress nounwind uwtable
define linkonce_odr void @_ZN9__gnu_cxx17__normal_iteratorIPP10ConstraintSt6vectorIS2_SaIS2_EEEC2ERKS3_(ptr noundef nonnull align 8 dereferenceable(8) %0, ptr noundef nonnull align 8 dereferenceable(8) %1) unnamed_addr #6 comdat align 2 {
  %3 = alloca ptr, align 8
  %4 = alloca ptr, align 8
  store ptr %0, ptr %3, align 8, !tbaa !60
  store ptr %1, ptr %4, align 8, !tbaa !120
  %5 = load ptr, ptr %3, align 8
  %6 = getelementptr inbounds nuw %"class.__gnu_cxx::__normal_iterator.5", ptr %5, i32 0, i32 0
  %7 = load ptr, ptr %4, align 8, !tbaa !120
  %8 = load ptr, ptr %7, align 8, !tbaa !62
  store ptr %8, ptr %6, align 8, !tbaa !63
  ret void
}

; Function Attrs: inlinehint mustprogress nounwind uwtable
define linkonce_odr noundef zeroext i1 @_ZN5Block13canFollowLeftEPK10ConstraintPK8Variable(ptr noundef nonnull align 8 dereferenceable(112) %0, ptr noundef %1, ptr noundef %2) #8 comdat align 2 {
  %4 = alloca ptr, align 8
  %5 = alloca ptr, align 8
  %6 = alloca ptr, align 8
  store ptr %0, ptr %4, align 8, !tbaa !3
  store ptr %1, ptr %5, align 8, !tbaa !53
  store ptr %2, ptr %6, align 8, !tbaa !8
  %7 = load ptr, ptr %4, align 8
  %8 = load ptr, ptr %5, align 8, !tbaa !53
  %9 = getelementptr inbounds nuw %struct.Constraint, ptr %8, i32 0, i32 0
  %10 = load ptr, ptr %9, align 8, !tbaa !58
  %11 = getelementptr inbounds nuw %struct.Variable, ptr %10, i32 0, i32 4
  %12 = load ptr, ptr %11, align 8, !tbaa !10
  %13 = icmp eq ptr %12, %7
  br i1 %13, label %14, label %25

14:                                               ; preds = %3
  %15 = load ptr, ptr %5, align 8, !tbaa !53
  %16 = getelementptr inbounds nuw %struct.Constraint, ptr %15, i32 0, i32 5
  %17 = load i8, ptr %16, align 8, !tbaa !67, !range !51, !noundef !52
  %18 = trunc i8 %17 to i1
  br i1 %18, label %19, label %25

19:                                               ; preds = %14
  %20 = load ptr, ptr %6, align 8, !tbaa !8
  %21 = load ptr, ptr %5, align 8, !tbaa !53
  %22 = getelementptr inbounds nuw %struct.Constraint, ptr %21, i32 0, i32 0
  %23 = load ptr, ptr %22, align 8, !tbaa !58
  %24 = icmp ne ptr %20, %23
  br label %25

25:                                               ; preds = %19, %14, %3
  %26 = phi i1 [ false, %14 ], [ false, %3 ], [ %24, %19 ]
  ret i1 %26
}

; Function Attrs: mustprogress nounwind uwtable
define linkonce_odr noundef nonnull align 8 dereferenceable(8) ptr @_ZN9__gnu_cxx17__normal_iteratorIPP10ConstraintSt6vectorIS2_SaIS2_EEEppEv(ptr noundef nonnull align 8 dereferenceable(8) %0) #6 comdat align 2 {
  %2 = alloca ptr, align 8
  store ptr %0, ptr %2, align 8, !tbaa !60
  %3 = load ptr, ptr %2, align 8
  %4 = getelementptr inbounds nuw %"class.__gnu_cxx::__normal_iterator.5", ptr %3, i32 0, i32 0
  %5 = load ptr, ptr %4, align 8, !tbaa !63
  %6 = getelementptr inbounds nuw ptr, ptr %5, i32 1
  store ptr %6, ptr %4, align 8, !tbaa !63
  ret ptr %3
}

; Function Attrs: inlinehint mustprogress nounwind uwtable
define linkonce_odr noundef zeroext i1 @_ZN5Block14canFollowRightEPK10ConstraintPK8Variable(ptr noundef nonnull align 8 dereferenceable(112) %0, ptr noundef %1, ptr noundef %2) #8 comdat align 2 {
  %4 = alloca ptr, align 8
  %5 = alloca ptr, align 8
  %6 = alloca ptr, align 8
  store ptr %0, ptr %4, align 8, !tbaa !3
  store ptr %1, ptr %5, align 8, !tbaa !53
  store ptr %2, ptr %6, align 8, !tbaa !8
  %7 = load ptr, ptr %4, align 8
  %8 = load ptr, ptr %5, align 8, !tbaa !53
  %9 = getelementptr inbounds nuw %struct.Constraint, ptr %8, i32 0, i32 1
  %10 = load ptr, ptr %9, align 8, !tbaa !59
  %11 = getelementptr inbounds nuw %struct.Variable, ptr %10, i32 0, i32 4
  %12 = load ptr, ptr %11, align 8, !tbaa !10
  %13 = icmp eq ptr %12, %7
  br i1 %13, label %14, label %25

14:                                               ; preds = %3
  %15 = load ptr, ptr %5, align 8, !tbaa !53
  %16 = getelementptr inbounds nuw %struct.Constraint, ptr %15, i32 0, i32 5
  %17 = load i8, ptr %16, align 8, !tbaa !67, !range !51, !noundef !52
  %18 = trunc i8 %17 to i1
  br i1 %18, label %19, label %25

19:                                               ; preds = %14
  %20 = load ptr, ptr %6, align 8, !tbaa !8
  %21 = load ptr, ptr %5, align 8, !tbaa !53
  %22 = getelementptr inbounds nuw %struct.Constraint, ptr %21, i32 0, i32 1
  %23 = load ptr, ptr %22, align 8, !tbaa !59
  %24 = icmp ne ptr %20, %23
  br label %25

25:                                               ; preds = %19, %14, %3
  %26 = phi i1 [ false, %14 ], [ false, %3 ], [ %24, %19 ]
  ret i1 %26
}

; Function Attrs: mustprogress nounwind uwtable
define linkonce_odr noundef nonnull align 8 dereferenceable(8) ptr @_ZNK9__gnu_cxx17__normal_iteratorIPP10ConstraintSt6vectorIS2_SaIS2_EEEdeEv(ptr noundef nonnull align 8 dereferenceable(8) %0) #6 comdat align 2 {
  %2 = alloca ptr, align 8
  store ptr %0, ptr %2, align 8, !tbaa !60
  %3 = load ptr, ptr %2, align 8
  %4 = getelementptr inbounds nuw %"class.__gnu_cxx::__normal_iterator.5", ptr %3, i32 0, i32 0
  %5 = load ptr, ptr %4, align 8, !tbaa !63
  ret ptr %5
}

; Function Attrs: inlinehint mustprogress nounwind uwtable
define linkonce_odr noundef zeroext i1 @_ZN9__gnu_cxxneIPP10ConstraintSt6vectorIS2_SaIS2_EEEEbRKNS_17__normal_iteratorIT_T0_EESC_(ptr noundef nonnull align 8 dereferenceable(8) %0, ptr noundef nonnull align 8 dereferenceable(8) %1) #8 comdat {
  %3 = alloca ptr, align 8
  %4 = alloca ptr, align 8
  store ptr %0, ptr %3, align 8, !tbaa !60
  store ptr %1, ptr %4, align 8, !tbaa !60
  %5 = load ptr, ptr %3, align 8, !tbaa !60
  %6 = call noundef nonnull align 8 dereferenceable(8) ptr @_ZNK9__gnu_cxx17__normal_iteratorIPP10ConstraintSt6vectorIS2_SaIS2_EEE4baseEv(ptr noundef nonnull align 8 dereferenceable(8) %5) #3
  %7 = load ptr, ptr %6, align 8, !tbaa !62
  %8 = load ptr, ptr %4, align 8, !tbaa !60
  %9 = call noundef nonnull align 8 dereferenceable(8) ptr @_ZNK9__gnu_cxx17__normal_iteratorIPP10ConstraintSt6vectorIS2_SaIS2_EEE4baseEv(ptr noundef nonnull align 8 dereferenceable(8) %8) #3
  %10 = load ptr, ptr %9, align 8, !tbaa !62
  %11 = icmp ne ptr %7, %10
  ret i1 %11
}

; Function Attrs: mustprogress nounwind uwtable
define linkonce_odr ptr @_ZNSt6vectorIP10ConstraintSaIS1_EE3endEv(ptr noundef nonnull align 8 dereferenceable(24) %0) #6 comdat align 2 {
  %2 = alloca %"class.__gnu_cxx::__normal_iterator.5", align 8
  %3 = alloca ptr, align 8
  store ptr %0, ptr %3, align 8, !tbaa !40
  %4 = load ptr, ptr %3, align 8
  %5 = getelementptr inbounds nuw %"struct.std::_Vector_base", ptr %4, i32 0, i32 0
  %6 = getelementptr inbounds nuw %"struct.std::_Vector_base<Constraint *, std::allocator<Constraint *>>::_Vector_impl_data", ptr %5, i32 0, i32 1
  call void @_ZN9__gnu_cxx17__normal_iteratorIPP10ConstraintSt6vectorIS2_SaIS2_EEEC2ERKS3_(ptr noundef nonnull align 8 dereferenceable(8) %2, ptr noundef nonnull align 8 dereferenceable(8) %6) #3
  %7 = getelementptr inbounds nuw %"class.__gnu_cxx::__normal_iterator.5", ptr %2, i32 0, i32 0
  %8 = load ptr, ptr %7, align 8
  ret ptr %8
}

; Function Attrs: mustprogress nounwind uwtable
define linkonce_odr ptr @_ZNSt6vectorIP10ConstraintSaIS1_EE5beginEv(ptr noundef nonnull align 8 dereferenceable(24) %0) #6 comdat align 2 {
  %2 = alloca %"class.__gnu_cxx::__normal_iterator.5", align 8
  %3 = alloca ptr, align 8
  store ptr %0, ptr %3, align 8, !tbaa !40
  %4 = load ptr, ptr %3, align 8
  %5 = getelementptr inbounds nuw %"struct.std::_Vector_base", ptr %4, i32 0, i32 0
  %6 = getelementptr inbounds nuw %"struct.std::_Vector_base<Constraint *, std::allocator<Constraint *>>::_Vector_impl_data", ptr %5, i32 0, i32 0
  call void @_ZN9__gnu_cxx17__normal_iteratorIPP10ConstraintSt6vectorIS2_SaIS2_EEEC2ERKS3_(ptr noundef nonnull align 8 dereferenceable(8) %2, ptr noundef nonnull align 8 dereferenceable(8) %6) #3
  %7 = getelementptr inbounds nuw %"class.__gnu_cxx::__normal_iterator.5", ptr %2, i32 0, i32 0
  %8 = load ptr, ptr %7, align 8
  ret ptr %8
}

; Function Attrs: mustprogress uwtable
define void @_ZN5Block15reset_active_lmEP8VariableS1_(ptr noundef nonnull align 8 dereferenceable(112) %0, ptr noundef %1, ptr noundef %2) #4 align 2 {
  %4 = alloca ptr, align 8
  %5 = alloca ptr, align 8
  %6 = alloca ptr, align 8
  %7 = alloca ptr, align 8
  %8 = alloca %"class.__gnu_cxx::__normal_iterator.5", align 8
  %9 = alloca %"class.__gnu_cxx::__normal_iterator.5", align 8
  %10 = alloca ptr, align 8
  %11 = alloca ptr, align 8
  %12 = alloca %"class.__gnu_cxx::__normal_iterator.5", align 8
  %13 = alloca %"class.__gnu_cxx::__normal_iterator.5", align 8
  %14 = alloca ptr, align 8
  store ptr %0, ptr %4, align 8, !tbaa !3
  store ptr %1, ptr %5, align 8, !tbaa !8
  store ptr %2, ptr %6, align 8, !tbaa !8
  %15 = load ptr, ptr %4, align 8
  call void @llvm.lifetime.start.p0(i64 8, ptr %7) #3
  %16 = load ptr, ptr %5, align 8, !tbaa !8
  %17 = getelementptr inbounds nuw %struct.Variable, ptr %16, i32 0, i32 7
  store ptr %17, ptr %7, align 8, !tbaa !40
  call void @llvm.lifetime.start.p0(i64 8, ptr %8) #3
  %18 = load ptr, ptr %7, align 8, !tbaa !40
  %19 = call ptr @_ZNSt6vectorIP10ConstraintSaIS1_EE5beginEv(ptr noundef nonnull align 8 dereferenceable(24) %18) #3
  %20 = getelementptr inbounds nuw %"class.__gnu_cxx::__normal_iterator.5", ptr %8, i32 0, i32 0
  store ptr %19, ptr %20, align 8
  call void @llvm.lifetime.start.p0(i64 8, ptr %9) #3
  %21 = load ptr, ptr %7, align 8, !tbaa !40
  %22 = call ptr @_ZNSt6vectorIP10ConstraintSaIS1_EE3endEv(ptr noundef nonnull align 8 dereferenceable(24) %21) #3
  %23 = getelementptr inbounds nuw %"class.__gnu_cxx::__normal_iterator.5", ptr %9, i32 0, i32 0
  store ptr %22, ptr %23, align 8
  br label %24

24:                                               ; preds = %41, %3
  %25 = call noundef zeroext i1 @_ZN9__gnu_cxxneIPP10ConstraintSt6vectorIS2_SaIS2_EEEEbRKNS_17__normal_iteratorIT_T0_EESC_(ptr noundef nonnull align 8 dereferenceable(8) %8, ptr noundef nonnull align 8 dereferenceable(8) %9) #3
  br i1 %25, label %27, label %26

26:                                               ; preds = %24
  call void @llvm.lifetime.end.p0(i64 8, ptr %9) #3
  call void @llvm.lifetime.end.p0(i64 8, ptr %8) #3
  call void @llvm.lifetime.end.p0(i64 8, ptr %7) #3
  br label %43

27:                                               ; preds = %24
  call void @llvm.lifetime.start.p0(i64 8, ptr %10) #3
  %28 = call noundef nonnull align 8 dereferenceable(8) ptr @_ZNK9__gnu_cxx17__normal_iteratorIPP10ConstraintSt6vectorIS2_SaIS2_EEEdeEv(ptr noundef nonnull align 8 dereferenceable(8) %8) #3
  %29 = load ptr, ptr %28, align 8, !tbaa !53
  store ptr %29, ptr %10, align 8, !tbaa !53
  %30 = load ptr, ptr %10, align 8, !tbaa !53
  %31 = load ptr, ptr %6, align 8, !tbaa !8
  %32 = call noundef zeroext i1 @_ZN5Block14canFollowRightEPK10ConstraintPK8Variable(ptr noundef nonnull align 8 dereferenceable(112) %15, ptr noundef %30, ptr noundef %31)
  br i1 %32, label %33, label %40

33:                                               ; preds = %27
  %34 = load ptr, ptr %10, align 8, !tbaa !53
  %35 = getelementptr inbounds nuw %struct.Constraint, ptr %34, i32 0, i32 3
  store double 0.000000e+00, ptr %35, align 8, !tbaa !71
  %36 = load ptr, ptr %10, align 8, !tbaa !53
  %37 = getelementptr inbounds nuw %struct.Constraint, ptr %36, i32 0, i32 1
  %38 = load ptr, ptr %37, align 8, !tbaa !59
  %39 = load ptr, ptr %5, align 8, !tbaa !8
  call void @_ZN5Block15reset_active_lmEP8VariableS1_(ptr noundef nonnull align 8 dereferenceable(112) %15, ptr noundef %38, ptr noundef %39)
  br label %40

40:                                               ; preds = %33, %27
  call void @llvm.lifetime.end.p0(i64 8, ptr %10) #3
  br label %41

41:                                               ; preds = %40
  %42 = call noundef nonnull align 8 dereferenceable(8) ptr @_ZN9__gnu_cxx17__normal_iteratorIPP10ConstraintSt6vectorIS2_SaIS2_EEEppEv(ptr noundef nonnull align 8 dereferenceable(8) %8) #3
  br label %24

43:                                               ; preds = %26
  call void @llvm.lifetime.start.p0(i64 8, ptr %11) #3
  %44 = load ptr, ptr %5, align 8, !tbaa !8
  %45 = getelementptr inbounds nuw %struct.Variable, ptr %44, i32 0, i32 6
  store ptr %45, ptr %11, align 8, !tbaa !40
  call void @llvm.lifetime.start.p0(i64 8, ptr %12) #3
  %46 = load ptr, ptr %11, align 8, !tbaa !40
  %47 = call ptr @_ZNSt6vectorIP10ConstraintSaIS1_EE5beginEv(ptr noundef nonnull align 8 dereferenceable(24) %46) #3
  %48 = getelementptr inbounds nuw %"class.__gnu_cxx::__normal_iterator.5", ptr %12, i32 0, i32 0
  store ptr %47, ptr %48, align 8
  call void @llvm.lifetime.start.p0(i64 8, ptr %13) #3
  %49 = load ptr, ptr %11, align 8, !tbaa !40
  %50 = call ptr @_ZNSt6vectorIP10ConstraintSaIS1_EE3endEv(ptr noundef nonnull align 8 dereferenceable(24) %49) #3
  %51 = getelementptr inbounds nuw %"class.__gnu_cxx::__normal_iterator.5", ptr %13, i32 0, i32 0
  store ptr %50, ptr %51, align 8
  br label %52

52:                                               ; preds = %69, %43
  %53 = call noundef zeroext i1 @_ZN9__gnu_cxxneIPP10ConstraintSt6vectorIS2_SaIS2_EEEEbRKNS_17__normal_iteratorIT_T0_EESC_(ptr noundef nonnull align 8 dereferenceable(8) %12, ptr noundef nonnull align 8 dereferenceable(8) %13) #3
  br i1 %53, label %55, label %54

54:                                               ; preds = %52
  call void @llvm.lifetime.end.p0(i64 8, ptr %13) #3
  call void @llvm.lifetime.end.p0(i64 8, ptr %12) #3
  call void @llvm.lifetime.end.p0(i64 8, ptr %11) #3
  br label %71

55:                                               ; preds = %52
  call void @llvm.lifetime.start.p0(i64 8, ptr %14) #3
  %56 = call noundef nonnull align 8 dereferenceable(8) ptr @_ZNK9__gnu_cxx17__normal_iteratorIPP10ConstraintSt6vectorIS2_SaIS2_EEEdeEv(ptr noundef nonnull align 8 dereferenceable(8) %12) #3
  %57 = load ptr, ptr %56, align 8, !tbaa !53
  store ptr %57, ptr %14, align 8, !tbaa !53
  %58 = load ptr, ptr %14, align 8, !tbaa !53
  %59 = load ptr, ptr %6, align 8, !tbaa !8
  %60 = call noundef zeroext i1 @_ZN5Block13canFollowLeftEPK10ConstraintPK8Variable(ptr noundef nonnull align 8 dereferenceable(112) %15, ptr noundef %58, ptr noundef %59)
  br i1 %60, label %61, label %68

61:                                               ; preds = %55
  %62 = load ptr, ptr %14, align 8, !tbaa !53
  %63 = getelementptr inbounds nuw %struct.Constraint, ptr %62, i32 0, i32 3
  store double 0.000000e+00, ptr %63, align 8, !tbaa !71
  %64 = load ptr, ptr %14, align 8, !tbaa !53
  %65 = getelementptr inbounds nuw %struct.Constraint, ptr %64, i32 0, i32 0
  %66 = load ptr, ptr %65, align 8, !tbaa !58
  %67 = load ptr, ptr %5, align 8, !tbaa !8
  call void @_ZN5Block15reset_active_lmEP8VariableS1_(ptr noundef nonnull align 8 dereferenceable(112) %15, ptr noundef %66, ptr noundef %67)
  br label %68

68:                                               ; preds = %61, %55
  call void @llvm.lifetime.end.p0(i64 8, ptr %14) #3
  br label %69

69:                                               ; preds = %68
  %70 = call noundef nonnull align 8 dereferenceable(8) ptr @_ZN9__gnu_cxx17__normal_iteratorIPP10ConstraintSt6vectorIS2_SaIS2_EEEppEv(ptr noundef nonnull align 8 dereferenceable(8) %12) #3
  br label %52

71:                                               ; preds = %54
  ret void
}