; Function Attrs: mustprogress nofree nosync nounwind memory(readwrite, inaccessiblemem: none) uwtable
define void @_ZN5Block15reset_active_lmEP8VariableS1_(ptr noundef nonnull align 8 dereferenceable(112) %0, ptr noundef %1, ptr noundef readnone captures(address) %2) local_unnamed_addr #8 align 2 {
  %4 = getelementptr inbounds nuw i8, ptr %1, i64 72
  %5 = load ptr, ptr %4, align 8, !tbaa !41
  %6 = getelementptr inbounds nuw i8, ptr %1, i64 80
  %7 = load ptr, ptr %6, align 8, !tbaa !41
  %.not26 = icmp eq ptr %5, %7
  br i1 %.not26, label %._crit_edge, label %.lr.ph

._crit_edge:                                      ; preds = %_ZN5Block14canFollowRightEPK10ConstraintPK8Variable.exit.thread, %3
  %8 = getelementptr inbounds nuw i8, ptr %1, i64 48
  %9 = load ptr, ptr %8, align 8, !tbaa !41
  %10 = getelementptr inbounds nuw i8, ptr %1, i64 56
  %11 = load ptr, ptr %10, align 8, !tbaa !41
  %.not2528 = icmp eq ptr %9, %11
  br i1 %.not2528, label %._crit_edge32, label %.lr.ph31

.lr.ph:                                           ; preds = %3, %_ZN5Block14canFollowRightEPK10ConstraintPK8Variable.exit.thread
  %.sroa.022.027 = phi ptr [ %24, %_ZN5Block14canFollowRightEPK10ConstraintPK8Variable.exit.thread ], [ %5, %3 ]
  %12 = load ptr, ptr %.sroa.022.027, align 8, !tbaa !43
  %13 = getelementptr inbounds nuw i8, ptr %12, i64 8
  %14 = load ptr, ptr %13, align 8, !tbaa !48
  %15 = getelementptr inbounds nuw i8, ptr %14, i64 32
  %16 = load ptr, ptr %15, align 8, !tbaa !3
  %17 = icmp eq ptr %16, %0
  br i1 %17, label %_ZN5Block14canFollowRightEPK10ConstraintPK8Variable.exit, label %_ZN5Block14canFollowRightEPK10ConstraintPK8Variable.exit.thread

_ZN5Block14canFollowRightEPK10ConstraintPK8Variable.exit: ; preds = %.lr.ph
  %18 = getelementptr inbounds nuw i8, ptr %12, i64 40
  %19 = load i8, ptr %18, align 8, !tbaa !50, !range !58, !noundef !59
  %20 = trunc nuw i8 %19 to i1
  %21 = icmp ne ptr %2, %14
  %spec.select.i = and i1 %21, %20
  br i1 %spec.select.i, label %22, label %_ZN5Block14canFollowRightEPK10ConstraintPK8Variable.exit.thread

22:                                               ; preds = %_ZN5Block14canFollowRightEPK10ConstraintPK8Variable.exit
  %23 = getelementptr inbounds nuw i8, ptr %12, i64 24
  store double 0.000000e+00, ptr %23, align 8, !tbaa !60
  tail call void @_ZN5Block15reset_active_lmEP8VariableS1_(ptr noundef nonnull align 8 dereferenceable(112) %0, ptr noundef nonnull %14, ptr noundef %1)
  br label %_ZN5Block14canFollowRightEPK10ConstraintPK8Variable.exit.thread

_ZN5Block14canFollowRightEPK10ConstraintPK8Variable.exit.thread: ; preds = %.lr.ph, %22, %_ZN5Block14canFollowRightEPK10ConstraintPK8Variable.exit
  %24 = getelementptr inbounds nuw i8, ptr %.sroa.022.027, i64 8
  %.not = icmp eq ptr %24, %7
  br i1 %.not, label %._crit_edge, label %.lr.ph

._crit_edge32:                                    ; preds = %_ZN5Block13canFollowLeftEPK10ConstraintPK8Variable.exit.thread, %._crit_edge
  ret void

.lr.ph31:                                         ; preds = %._crit_edge, %_ZN5Block13canFollowLeftEPK10ConstraintPK8Variable.exit.thread
  %.sroa.018.029 = phi ptr [ %36, %_ZN5Block13canFollowLeftEPK10ConstraintPK8Variable.exit.thread ], [ %9, %._crit_edge ]
  %25 = load ptr, ptr %.sroa.018.029, align 8, !tbaa !43
  %26 = load ptr, ptr %25, align 8, !tbaa !47
  %27 = getelementptr inbounds nuw i8, ptr %26, i64 32
  %28 = load ptr, ptr %27, align 8, !tbaa !3
  %29 = icmp eq ptr %28, %0
  br i1 %29, label %_ZN5Block13canFollowLeftEPK10ConstraintPK8Variable.exit, label %_ZN5Block13canFollowLeftEPK10ConstraintPK8Variable.exit.thread

_ZN5Block13canFollowLeftEPK10ConstraintPK8Variable.exit: ; preds = %.lr.ph31
  %30 = getelementptr inbounds nuw i8, ptr %25, i64 40
  %31 = load i8, ptr %30, align 8, !tbaa !50, !range !58, !noundef !59
  %32 = trunc nuw i8 %31 to i1
  %33 = icmp ne ptr %2, %26
  %spec.select.i17 = and i1 %33, %32
  br i1 %spec.select.i17, label %34, label %_ZN5Block13canFollowLeftEPK10ConstraintPK8Variable.exit.thread

34:                                               ; preds = %_ZN5Block13canFollowLeftEPK10ConstraintPK8Variable.exit
  %35 = getelementptr inbounds nuw i8, ptr %25, i64 24
  store double 0.000000e+00, ptr %35, align 8, !tbaa !60
  tail call void @_ZN5Block15reset_active_lmEP8VariableS1_(ptr noundef nonnull align 8 dereferenceable(112) %0, ptr noundef nonnull %26, ptr noundef %1)
  br label %_ZN5Block13canFollowLeftEPK10ConstraintPK8Variable.exit.thread

_ZN5Block13canFollowLeftEPK10ConstraintPK8Variable.exit.thread: ; preds = %.lr.ph31, %34, %_ZN5Block13canFollowLeftEPK10ConstraintPK8Variable.exit
  %36 = getelementptr inbounds nuw i8, ptr %.sroa.018.029, i64 8
  %.not25 = icmp eq ptr %36, %11
  br i1 %.not25, label %._crit_edge32, label %.lr.ph31
}